; Function Attrs: nounwind uwtable
define internal range(i32 1, 3) i32 @luaB_loadfile(ptr noundef %0) #0 {
  %2 = tail call ptr @luaL_optlstring(ptr noundef %0, i32 noundef 1, ptr noundef null, ptr noundef null) #8
  %3 = tail call i32 @luaL_loadfile(ptr noundef %0, ptr noundef %2) #8
  %4 = icmp eq i32 %3, 0
  br i1 %4, label %load_aux.exit, label %5

5:                                                ; preds = %1
  tail call void @lua_pushnil(ptr noundef %0) #8
  tail call void @lua_insert(ptr noundef %0, i32 noundef -2) #8
  br label %load_aux.exit

load_aux.exit:                                    ; preds = %1, %5
  %.0.i = phi i32 [ 2, %5 ], [ 1, %1 ]
  ret i32 %.0.i
}